; Function Attrs: nounwind uwtable
define range(i32 -2147483648, 2147483647) i32 @Cba_NtkFindMissing(ptr noundef readonly captures(none) %0, i32 noundef %1) local_unnamed_addr #1 {
  %3 = add nsw i32 %1, 1
  %or.cond.i.i = icmp ult i32 %1, 15
  %spec.store.select.i.i = select i1 %or.cond.i.i, i32 16, i32 %3
  %.not.i.i = icmp eq i32 %spec.store.select.i.i, 0
  br i1 %.not.i.i, label %Vec_IntStartFull.exit, label %Vec_IntAlloc.exit.i

Vec_IntAlloc.exit.i:                              ; preds = %2
  %4 = sext i32 %spec.store.select.i.i to i64
  %5 = shl nsw i64 %4, 2
  %6 = tail call noalias ptr @malloc(i64 noundef %5) #25
  %.not.i = icmp eq ptr %6, null
  br i1 %.not.i, label %Vec_IntStartFull.exit, label %7

7:                                                ; preds = %Vec_IntAlloc.exit.i
  %8 = sext i32 %3 to i64
  %9 = shl nsw i64 %8, 2
  tail call void @llvm.memset.p0.i64(ptr nonnull align 4 %6, i8 -1, i64 %9, i1 false)
  br label %Vec_IntStartFull.exit

Vec_IntStartFull.exit:                            ; preds = %2, %Vec_IntAlloc.exit.i, %7
  %10 = phi ptr [ null, %Vec_IntAlloc.exit.i ], [ %6, %7 ], [ null, %2 ]
  %11 = getelementptr i8, ptr %0, i64 4
  %.val2230 = load i32, ptr %11, align 4
  %12 = icmp sgt i32 %.val2230, 0
  br i1 %12, label %.lr.ph, label %.critedge.preheader

.lr.ph:                                           ; preds = %Vec_IntStartFull.exit
  %13 = getelementptr i8, ptr %0, i64 8
  %.val24.pre = load ptr, ptr %13, align 8
  %14 = zext nneg i32 %.val2230 to i64
  br label %16

.critedge.preheader:                              ; preds = %16, %Vec_IntStartFull.exit
  %15 = icmp sgt i32 %1, 0
  br i1 %15, label %.lr.ph33, label %.critedge2

.lr.ph33:                                         ; preds = %.critedge.preheader
  %wide.trip.count = zext nneg i32 %3 to i64
  br label %23

16:                                               ; preds = %.lr.ph, %16
  %indvars.iv = phi i64 [ 0, %.lr.ph ], [ %indvars.iv.next, %16 ]
  %17 = getelementptr inbounds nuw i32, ptr %.val24.pre, i64 %indvars.iv
  %18 = load i32, ptr %17, align 4
  %19 = sext i32 %18 to i64
  %20 = getelementptr inbounds i32, ptr %10, i64 %19
  %21 = trunc nuw nsw i64 %indvars.iv to i32
  store i32 %21, ptr %20, align 4
  %indvars.iv.next = add nuw nsw i64 %indvars.iv, 1
  %22 = icmp samesign ult i64 %indvars.iv.next, %14
  br i1 %22, label %16, label %.critedge.preheader, !llvm.loop !45

23:                                               ; preds = %.lr.ph33, %.critedge
  %indvars.iv36 = phi i64 [ 1, %.lr.ph33 ], [ %indvars.iv.next37, %.critedge ]
  %24 = getelementptr inbounds nuw i32, ptr %10, i64 %indvars.iv36
  %25 = load i32, ptr %24, align 4
  %26 = icmp eq i32 %25, -1
  br i1 %26, label %Vec_IntFree.exit, label %.critedge

Vec_IntFree.exit:                                 ; preds = %23
  %27 = trunc nuw nsw i64 %indvars.iv36 to i32
  br label %Vec_IntFree.exit28.sink.split

.critedge:                                        ; preds = %23
  %indvars.iv.next37 = add nuw nsw i64 %indvars.iv36, 1
  %exitcond.not = icmp eq i64 %indvars.iv.next37, %wide.trip.count
  br i1 %exitcond.not, label %Vec_IntFree.exit28.sink.split, label %23, !llvm.loop !46

.critedge2:                                       ; preds = %.critedge.preheader
  %.not.i27 = icmp eq ptr %10, null
  br i1 %.not.i27, label %Vec_IntFree.exit28, label %Vec_IntFree.exit28.sink.split

Vec_IntFree.exit28.sink.split:                    ; preds = %.critedge, %.critedge2, %Vec_IntFree.exit
  %.021.ph = phi i32 [ %27, %Vec_IntFree.exit ], [ -1, %.critedge2 ], [ -1, %.critedge ]
  tail call void @free(ptr noundef nonnull %10) #26
  br label %Vec_IntFree.exit28

Vec_IntFree.exit28:                               ; preds = %Vec_IntFree.exit28.sink.split, %.critedge2
  %.021 = phi i32 [ -1, %.critedge2 ], [ %.021.ph, %Vec_IntFree.exit28.sink.split ]
  ret i32 %.021
}